
CamInterfaceAsm.o:     file format elf32-avr


Disassembly of section .text:

00000000 <CamIntAsm_toggleDebugLine>:
; 
CamIntAsm_toggleDebugLine:
;lds,sts work as well, the problem was that the ddr was not set
; a short pulse of about 125 nSec...
;       sbi     _SFR_IO_ADDR(DDRD),PD6  ; now set in framemgr.c
	    sbi		_SFR_IO_ADDR(PORTD),PD6  ; For testing...
   0:	5e 9a       	sbi	0x0b, 6	; 11
		cbi		_SFR_IO_ADDR(PORTD),PD6		
   2:	5e 98       	cbi	0x0b, 6	; 11
        ret;	
   4:	08 95       	ret

00000006 <CamIntAsm_waitForNewTrackingFrame>:
;*****************************************************************
		
CamIntAsm_waitForNewTrackingFrame:
;		sbi		_SFR_IO_ADDR(PORTD),PD6  ; For testing...
;		cbi		_SFR_IO_ADDR(PORTD),PD6		
		sleep
   6:	88 95       	sleep

00000008 <CamIntAsm_acquireTrackingLine>:
; synchronized with the flow of pixel data from the camera...
;*****************************************************************

CamIntAsm_acquireTrackingLine:
; this branch is out of range when we just do brts _cleanUp  9/21/09 jcd
		brts    jcdcleanUp	
   8:	06 f0       	brts	.+0      	; 0xa <CamIntAsm_acquireTrackingLine+0x2>
;		sbi		_SFR_IO_ADDR(PORTD),PD6 ; For testing...change me back
;		cbi		_SFR_IO_ADDR(PORTD),PD6
       
;;;;;;       in      tmp1,_SFR_IO_ADDR(TCCR1B) ; 
        lds      tmp1,TCCR1B ; Enable the PCLK line to actually   9/21/09 jcd
   a:	30 91 81 00 	lds	r19, 0x0081
        ori     tmp1, 0x07                 ; feed Timer1
   e:	37 60       	ori	r19, 0x07	; 7
;;;;;;        out     _SFR_IO_ADDR(TCCR1B),tmp1 
        sts     TCCR1B,tmp1   ; 9/21/09 jcd
  10:	30 93 81 00 	sts	0x0081, r19

										; The line is about to start...		
		ldi     pixelCount,0			; Initialize the RLE stats...
  14:	00 e0       	ldi	r16, 0x00	; 0
		ldi		pixelRunStart,PIXEL_RUN_START_INITIAL  	; Remember, we always calculate
  16:	10 e5       	ldi	r17, 0x50	; 80
														; the pixel run length as
														; TCNT1L - pixelRunStart
		
		ldi		lastColor,0x00				; clear out the last color before we start
  18:	20 e0       	ldi	r18, 0x00	; 0
		
		mov   	XH,currLineBuffHigh    	; Load the pointer to the current line
  1a:	b9 2f       	mov	r27, r25
		mov		XL,currLineBuffLow		; buffer into the X pointer regs		 
  1c:	a8 2f       	mov	r26, r24
		
		mov   	ZH,colorMapHigh      	; Load the pointers to the membership
  1e:	f7 2f       	mov	r31, r23
		mov		ZL,colorMapLow			; lookup tables (ZL and YL will be overwritten
  20:	e6 2f       	mov	r30, r22
		mov 	YH,colorMapHigh	 		; as soon as we start reading data) to Z and Y
  22:	d7 2f       	mov	r29, r23
		
;;;;;		in		tmp1, _SFR_IO_ADDR(TIMSK)	
        lds		tmp1, TIMSK1			; enable TIMER1 to start counting 9/21/09 jcd
  24:	30 91 6f 00 	lds	r19, 0x006F
		ori		tmp1, ENABLE_PCLK_TIMER1_OVERFLOW_BITMASK 	; external PCLK pulses and interrupt on 
  28:	31 60       	ori	r19, 0x01	; 1
;;;;;		out		_SFR_IO_ADDR(TIMSK),tmp1	
		sts		TIMSK1,tmp1			; overflow 9/21/09 jcd
  2a:	30 93 6f 00 	sts	0x006F, r19

		ldi 	tmp1,PIXEL_RUN_START_INITIAL	; set up the TCNT1 to overflow (and
  2e:	30 e5       	ldi	r19, 0x50	; 80
		ldi 	tmp2,0xFF 						; interrupts) after 176 pixels	
  30:	4f ef       	ldi	r20, 0xFF	; 255
	
;;;;;		out 	_SFR_IO_ADDR(TCNT1H),tmp2	
        sts 	TCNT1H,tmp2	;9/21/09 jcd
  32:	40 93 85 00 	sts	0x0085, r20
;;;;;		out 	_SFR_IO_ADDR(TCNT1L),tmp1	
        sts 	TCNT1L,tmp1	;9/21/09 jcd		
  36:	30 93 84 00 	sts	0x0084, r19
		
		mov		YL,colorMapLow		
  3a:	c6 2f       	mov	r28, r22
		
;;;;;		in 		tmp1, _SFR_IO_ADDR(GICR)	
        lds		tmp1,EIMSK	; enable the HREF interrupt...remember, we 9/21/09 jcd
  3c:	30 91 3d 00 	lds	r19, 0x003D
											; only use this interrupt to synchronize
											; the beginning of the line

		ori 	tmp1, HREF_INTERRUPT_ENABLE_MASK
  40:	32 60       	ori	r19, 0x02	; 2
;;;;;		out		_SFR_IO_ADDR(GICR), tmp1 
        sts		EIMSK, tmp1 ; 9/21/09 jcd
  42:	30 93 3d 00 	sts	0x003D, r19

00000046 <_trackFrame>:
;   Track Frame handler 
;*******************************************************************************************		
		
_trackFrame:		
;		sbi		_SFR_IO_ADDR(PORTD),PD6
		sleep   ; ...And we wait...
  46:	88 95       	sleep
;;		cbi		_SFR_IO_ADDR(PORTD),PD6     ;

; changing from in/out instructions to lds/sts will use 2 additional cycles, comment out
; the nops below - perhaps set the 7620 to delay the pixels relative to the href as well...
;;;;;		in 		tmp1, _SFR_IO_ADDR(GICR) 
        lds 		tmp1,EIMSK ; 9/21/09 jcd
  48:	30 91 3d 00 	lds	r19, 0x003D
		andi 	tmp1, HREF_INTERRUPT_DISABLE_MASK
  4c:	3d 7f       	andi	r19, 0xFD	; 253
;;;;;		out		_SFR_IO_ADDR(GICR), tmp1 
        sts		EIMSK, tmp1 ; 9/21/09 jcd
  4e:	30 93 3d 00 	sts	0x003D, r19

00000052 <_acquirePixelBlock>:
	; of NOPs was determined emperically by trial and error.
    ; *probably* no longer necessary - 9/21/09 jcd
;;;;;		nop
;;;;;		nop
_acquirePixelBlock:							;							Clock Cycle Count
		in		ZL,RB_PORT         			; sample the red value (PINB)		(1)
  52:	e3 b1       	in	r30, 0x03	; 3
		in		YL,G_PORT         			; sample the green value (PINC)		(1)
  54:	c6 b1       	in	r28, 0x06	; 6
		andi	YL,0x0F            			; clear the high nibble				(1)
  56:	cf 70       	andi	r28, 0x0F	; 15
		ldd		color,Z+RED_MEM_OFFSET  	; lookup the red membership			(2)
  58:	30 81       	ld	r19, Z
		in		ZL,RB_PORT         			; sample the blue value (PINB)		(1)
  5a:	e3 b1       	in	r30, 0x03	; 3
		ldd		greenData,Y+GREEN_MEM_OFFSET; lookup the green membership		(2)
  5c:	48 89       	ldd	r20, Y+16	; 0x10
		ldd		blueData,Z+BLUE_MEM_OFFSET	; lookup the blue membership		(2)
  5e:	50 a1       	ldd	r21, Z+32	; 0x20
		and		color,greenData 			; mask memberships together			(1)
  60:	34 23       	and	r19, r20
		and		color,blueData  			; to produce the final color		(1)
  62:	35 23       	and	r19, r21
		brts    _cleanUpTrackingLine		; if some interrupt routine has		(1...not set)
  64:	06 f0       	brts	.+0      	; 0x66 <_acquirePixelBlock+0x14>
											; come in and set our T flag in 
											; SREG, then we need to hop out
											; and blow away this frames data (common cleanup)									
		cp		color,lastColor     		; check to see if the run continues	(1)
  66:	32 17       	cp	r19, r18
		breq    _acquirePixelBlock  		;									(2...equal)
  68:	01 f0       	breq	.+0      	; 0x6a <_acquirePixelBlock+0x18>
		; Toggle the debug line to indicate a color change
;		sbi     _SFR_IO_ADDR(PORTD),PD6
;		nop
;		cbi		_SFR_IO_ADDR(PORTD),PD6
		
		mov		tmp2,pixelRunStart				; get the count value of the
  6a:	41 2f       	mov	r20, r17
											; current pixel run
;;;;;   	in		pixelCount,_SFR_IO_ADDR(TCNT1L)
        lds		pixelCount,TCNT1L	; get the current TCNT1 value 9/21/09 jcd
  6c:	00 91 84 00 	lds	r16, 0x0084

		mov   	pixelRunStart,pixelCount		; reload pixelRunStart for the
  70:	10 2f       	mov	r17, r16
												; next run
		sub		pixelCount,tmp2     			; pixelCount = TCNT1L - pixelRunStart
  72:	04 1b       	sub	r16, r20
										
		st		X+,lastColor			; record the color run in the current line buffer
  74:	2d 93       	st	X+, r18
		st		X+,pixelCount			; with its length
  76:	0d 93       	st	X+, r16
		mov		lastColor,color			; set lastColor so we can figure out when it changes
  78:	23 2f       	mov	r18, r19
		
		nop								; waste one more cycle for a total of 16
  7a:	00 00       	nop
		rjmp	_acquirePixelBlock	
  7c:	00 c0       	rjmp	.+0      	; 0x7e <jcdcleanUp>

0000007e <jcdcleanUp>:

jcdcleanUp:
    rjmp _cleanUp;		just a branch extension for CamIntAsm_acquireTrackingLine
  7e:	00 c0       	rjmp	.+0      	; 0x80 <_cleanUpTrackingLine>

00000080 <_cleanUpTrackingLine>:

; _cleanUpTrackingLine is used to write the last run length block off to the currentLineBuffer so
; that all 176 pixels in the line are accounted for.
_cleanUpTrackingLine:		
		ldi		pixelCount,0xFF		; the length of the last run is ALWAYS 0xFF minus the last
  80:	0f ef       	ldi	r16, 0xFF	; 255
		sub		pixelCount,pixelRunStart  	; pixelRunStart
  82:	01 1b       	sub	r16, r17
		
		inc		pixelCount				; increment pixelCount since we actually need to account
  84:	03 95       	inc	r16
										; for the overflow of TCNT1
										
		st		X+,color				; record the color run in the current line buffer
  86:	3d 93       	st	X+, r19
		st		X,pixelCount		
  88:	0c 93       	st	X, r16
		rjmp	_cleanUp
  8a:	00 c0       	rjmp	.+0      	; 0x8c <_cleanUp>

0000008c <_cleanUp>:

_cleanUp:
        ; Disable the external clocking of the Timer1 counter 

;;;;;;        in      tmp1, _SFR_IO_ADDR(TCCR1B) 
        lds     tmp1,TCCR1B ; 9/21/09 jcd 
  8c:	30 91 81 00 	lds	r19, 0x0081
        andi    tmp1, 0xF8
  90:	38 7f       	andi	r19, 0xF8	; 248
;;;;;;        out     _SFR_IO_ADDR(TCCR1B),tmp1 
        sts     TCCR1B,tmp1 ; 9/21/09 jcd
  92:	30 93 81 00 	sts	0x0081, r19
		
		; Toggle the debug line to indicate the line is complete
;		sbi     _SFR_IO_ADDR(PORTD),PD6 ; jcd 10/1/09 change me back?
;		cbi		_SFR_IO_ADDR(PORTD),PD6
		clt				; clear out the T bit since we have detected
  96:	e8 94       	clt

00000098 <_exit>:
						; the interruption and are exiting to handle it
_exit:
		ret
  98:	08 95       	ret

0000009a <CamIntAsm_waitForNewDumpFrame>:
;       is awoken.
;*****************************************************************		
CamIntAsm_waitForNewDumpFrame:
		;sbi		_SFR_IO_ADDR(PORTD),PD6  ; For testing...
		;cbi		_SFR_IO_ADDR(PORTD),PD6
		sleep
  9a:	88 95       	sleep

0000009c <CamIntAsm_acquireDumpLine>:
;*****************************************************************
; frameMgr calls this, but though it's reached it's never returned from...
; it spins in sampleDumpPixel
CamIntAsm_acquireDumpLine:
;		call CamIntAsm_toggleDebugLine; gets here
		brts	_cleanUp
  9c:	06 f0       	brts	.+0      	; 0x9e <CamIntAsm_acquireDumpLine+0x2>

		
		mov   	XH,currLineBuffHigh    	; Load the pointer to the current line
  9e:	b9 2f       	mov	r27, r25
		mov		XL,currLineBuffLow		; buffer into the X pointer regs
  a0:	a8 2f       	mov	r26, r24

		mov		YH,prevLineBuffHigh		; Load the pointer to the previous line
  a2:	d7 2f       	mov	r29, r23
		mov		YL,prevLineBuffLow  	; buffer into the Y pointer regs
  a4:	c6 2f       	mov	r28, r22
		
		ldi 	tmp1,PIXEL_RUN_START_INITIAL	; set up the TCNT1 to overflow (and
  a6:	30 e5       	ldi	r19, 0x50	; 80
		ldi 	tmp2,0xFF 						; interrupts) after 176 pixels		
  a8:	4f ef       	ldi	r20, 0xFF	; 255
;;;;;;	out 	_SFR_IO_ADDR(TCNT1H),tmp2	
        sts 	TCNT1H,tmp2   ;	9/21/09 jcd	
  aa:	40 93 85 00 	sts	0x0085, r20
;;;;;;	out 	_SFR_IO_ADDR(TCNT1L),tmp1	
		sts 	TCNT1L,tmp1	; 9/21/09 jcd
  ae:	30 93 84 00 	sts	0x0084, r19
;;;;;;        in      tmp1, _SFR_IO_ADDR(TCCR1B)
        lds      tmp1,TCCR1B ; Enable the PCLK line to actually 9/21/09 jcd
  b2:	30 91 81 00 	lds	r19, 0x0081
        ori     tmp1, 0x07                 ; feed Timer1
  b6:	37 60       	ori	r19, 0x07	; 7
;;;;;        out     _SFR_IO_ADDR(TCCR1B),tmp1 
        sts     TCCR1B,tmp1 ; 9/21/09 jcd
  b8:	30 93 81 00 	sts	0x0081, r19
;		call CamIntAsm_toggleDebugLine; change me gets here
        
;;;;;		in		tmp1, _SFR_IO_ADDR(TIMSK)	
        lds		tmp1, TIMSK1			; enable TIMER1 to start counting 9/21/09 jcd
  bc:	30 91 6f 00 	lds	r19, 0x006F
		ori		tmp1, ENABLE_PCLK_TIMER1_OVERFLOW_BITMASK 	; 0x01 external PCLK pulses and interrupt on 
  c0:	31 60       	ori	r19, 0x01	; 1
;;;;;		out		_SFR_IO_ADDR(TIMSK),tmp1			
		sts		TIMSK1,tmp1			; overflow	; 9/21/09 jcd
  c2:	30 93 6f 00 	sts	0x006F, r19
		
;;;;;		in 		tmp1, _SFR_IO_ADDR(GICR)	;  
        lds		tmp1,EIMSK; enable the HREF interrupt...remember, 9/21/09 jcd
  c6:	30 91 3d 00 	lds	r19, 0x003D
											; only use this interrupt to synchronize
											; the beginning of the line
		ori 	tmp1, HREF_INTERRUPT_ENABLE_MASK; 0x02
  ca:	32 60       	ori	r19, 0x02	; 2
;;;;;		out		_SFR_IO_ADDR(GICR), tmp1 
        sts		EIMSK,tmp1; 9/21/09 jcd
  cc:	30 93 3d 00 	sts	0x003D, r19

000000d0 <_dumpFrame>:
;*******************************************************************************************		
		
_dumpFrame:		

;call CamIntAsm_toggleDebugLine; gets here
        ldi     tmp1,0x01; idle, sleep enable
  d0:	31 e0       	ldi	r19, 0x01	; 1
        sts     SMCR,tmp1;
  d2:	30 93 53 00 	sts	0x0053, r19
		sleep   ; ...And we wait...seems to wait
  d6:	88 95       	sleep
;call CamIntAsm_toggleDebugLine; gets here but not if we trigger off the call before sleeping
;call CamIntAsm_toggleDebugLine; 
;call CamIntAsm_toggleDebugLine; 

;;;;;		in 		tmp1, _SFR_IO_ADDR(GICR)			; 
        lds		tmp1,EIMSK; disable the HREF interrupt 9/21/09 jcd
  d8:	30 91 3d 00 	lds	r19, 0x003D
		andi 	tmp1, HREF_INTERRUPT_DISABLE_MASK  	; so we don't get interrupted
  dc:	3d 7f       	andi	r19, 0xFD	; 253
;;;;;		out		_SFR_IO_ADDR(GICR), tmp1			; while dumping the line 
	    sts		EIMSK,tmp1; 9/21/09 jcd
  de:	30 93 3d 00 	sts	0x003D, r19
	...

000000e4 <_sampleDumpPixel>:
; it is assumed that we will have to do some minor processing on the data right
; before we send it out, like mask off the top 4-bits of each, and then pack both
; low nibbles into a single byte for transmission...we just don't have time to
; do that here (only 8 instruction cycles :-)  )
_sampleDumpPixel:
		in		tmp1,G_PORT				; sample the G value					(1) change me
  e4:	36 b1       	in	r19, 0x06	; 6
		in		tmp2,RB_PORT			; sample the R/B value					(1) change me
  e6:	43 b1       	in	r20, 0x03	; 3
		st		X+,tmp1					; store to the currLineBuff and inc ptrs(2)
  e8:	3d 93       	st	X+, r19
		st		Y+,tmp2					; store to the prevLineBuff and inc ptrs(2)
  ea:	49 93       	st	Y+, r20

; debug toggle here goes on forever, always executes the branch
		brtc	_sampleDumpPixel		; loop back unless flag is set			(2...if not set)
  ec:	06 f4       	brtc	.+0      	; 0xee <_sampleDumpPixel+0xa>
							            ;									8 cycles normally
;call CamIntAsm_toggleDebugLine; never gets here
								
		; if we make it here, it means the T flag is set, and we must have been interrupted
		; so we need to exit (what if we were interrupted for serial? should we disable it?)
		rjmp	_cleanUpDumpLine
  ee:	00 c0       	rjmp	.+0      	; 0xf0 <__vector_1>

000000f0 <__vector_1>:
;	Outputs: none
;***********************************************************
;SIG_INTERRUPT0:
INT0_vect:
; This will wake us up when VSYNC transitions high...we just want to return
call CamIntAsm_toggleDebugLine; change me not triggered
  f0:	0e 94 00 00 	call	0	; 0x0 <CamIntAsm_toggleDebugLine>
		reti
  f4:	18 95       	reti

000000f6 <__vector_2>:
;	Outputs: none
;***********************************************************	
;SIG_INTERRUPT1:
INT1_vect:
; This will wake us up when HREF transitions high...we just want to return
        call CamIntAsm_toggleDebugLine;  change me not triggered
  f6:	0e 94 00 00 	call	0	; 0x0 <CamIntAsm_toggleDebugLine>
		reti
  fa:	18 95       	reti
;SIG_OVERFLOW0:
;		set				; set the T bit in SREG
;		lds		tmp1,eventBitmask
;		ori		tmp1,EV_ACQUIRE_FRAME_COMPLETE
;		sts		eventBitmask,tmp1
call CamIntAsm_toggleDebugLine;  change me not triggered
  fc:	0e 94 00 00 	call	0	; 0x0 <CamIntAsm_toggleDebugLine>

00000100 <TIM1_OVF_vect>:
;	event in the fastEventBitmask, which is streamlined for
;	efficiency reasons.
;***********************************************************
;SIG_OVERFLOW1:				
TIM1_OVF_vect:
		lds		tmp1,fastEventBitmask   		; set a flag indicating
 100:	30 91 00 00 	lds	r19, 0x0000
		ori		tmp1,FEV_ACQUIRE_LINE_COMPLETE	; a line is complete
 104:	31 60       	ori	r19, 0x01	; 1
		sts		fastEventBitmask,tmp1
 106:	30 93 00 00 	sts	0x0000, r19
		set		; set the T bit in SREG 
 10a:	68 94       	set
		call CamIntAsm_toggleDebugLine; change me
 10c:	0e 94 00 00 	call	0	; 0x0 <CamIntAsm_toggleDebugLine>
		reti
 110:	18 95       	reti

00000112 <__vector_default>:

; This is the default handler for all interrupts that don't
; have handler routines specified for them.
        .global __vector_default              
__vector_default:
        reti
 112:	18 95       	reti
